target datalayout = "e-m:e-p270:32:32-p271:32:32-p272:64:64-i64:64-i128:128-f80:128-n8:16:32:64-S128"
target triple = "x86_64-pc-linux-gnu"

%struct.archive_read = type { %struct.archive, ptr, i32, i64, i64, %struct.archive_read_client, [16 x %struct.archive_read_filter_bidder], ptr, i32, i64, i32, i32, [16 x %struct.archive_format_descriptor], ptr, ptr, ptr, %struct.anon }
%struct.archive = type { i32, i32, ptr, i32, ptr, i32, i32, ptr, %struct.archive_string, ptr, i32, i32, ptr, ptr, i64, i64, i64, i8, i64 }
%struct.archive_string = type { ptr, i64, i64 }
%struct.archive_read_client = type { ptr, ptr, ptr, ptr, ptr, ptr, i32, i32, i64, ptr }
%struct.archive_read_filter_bidder = type { ptr, ptr, ptr }
%struct.archive_format_descriptor = type { ptr, ptr, ptr, ptr, ptr, ptr, ptr, ptr, ptr, ptr, ptr }
%struct.anon = type { ptr, ptr, i32, ptr, ptr }
%struct.archive_read_filter = type { i64, ptr, ptr, ptr, ptr, ptr, ptr, i32, i32, i32, ptr, i64, ptr, i64, ptr, i64, ptr, i64, i8, i8, i8 }
%struct.archive_read_filter_bidder_vtable = type { ptr, ptr, ptr }

@.str.14 = private unnamed_addr constant [14 x i8] c"Out of memory\00", align 1
@.str.15 = private unnamed_addr constant [48 x i8] c"Internal error: Unable to append program filter\00", align 1

; Function Attrs: nounwind uwtable
define dso_local i32 @archive_read_append_filter_program_signature(ptr noundef %0, ptr noundef %1, ptr noundef %2, i64 noundef %3) #0 {
  %5 = alloca i32, align 4
  %6 = alloca ptr, align 8
  %7 = alloca ptr, align 8
  %8 = alloca ptr, align 8
  %9 = alloca i64, align 8
  %10 = alloca i32, align 4
  %11 = alloca i32, align 4
  %12 = alloca i32, align 4
  %13 = alloca ptr, align 8
  %14 = alloca ptr, align 8
  %15 = alloca ptr, align 8
  %16 = alloca i32, align 4
  store ptr %0, ptr %6, align 8, !tbaa !4
  store ptr %1, ptr %7, align 8, !tbaa !47
  store ptr %2, ptr %8, align 8, !tbaa !48
  store i64 %3, ptr %9, align 8, !tbaa !49
  call void @llvm.lifetime.start.p0(i64 4, ptr %10) #6
  call void @llvm.lifetime.start.p0(i64 4, ptr %11) #6
  call void @llvm.lifetime.start.p0(i64 4, ptr %12) #6
  call void @llvm.lifetime.start.p0(i64 8, ptr %13) #6
  call void @llvm.lifetime.start.p0(i64 8, ptr %14) #6
  call void @llvm.lifetime.start.p0(i64 8, ptr %15) #6
  %17 = load ptr, ptr %6, align 8, !tbaa !4
  store ptr %17, ptr %15, align 8, !tbaa !11
  %18 = load ptr, ptr %6, align 8, !tbaa !4
  %19 = load ptr, ptr %7, align 8, !tbaa !47
  %20 = load ptr, ptr %8, align 8, !tbaa !48
  %21 = load i64, ptr %9, align 8, !tbaa !49
  %22 = call i32 @archive_read_support_filter_program_signature(ptr noundef %18, ptr noundef %19, ptr noundef %20, i64 noundef %21)
  %23 = icmp ne i32 %22, 0
  br i1 %23, label %24, label %25

24:                                               ; preds = %4
  store i32 -30, ptr %5, align 4
  store i32 1, ptr %16, align 4
  br label %104

25:                                               ; preds = %4
  store i32 16, ptr %11, align 4, !tbaa !9
  %26 = load ptr, ptr %15, align 8, !tbaa !11
  %27 = getelementptr inbounds nuw %struct.archive_read, ptr %26, i32 0, i32 6
  %28 = getelementptr inbounds [16 x %struct.archive_read_filter_bidder], ptr %27, i64 0, i64 0
  store ptr %28, ptr %13, align 8, !tbaa !13
  store i32 0, ptr %12, align 4, !tbaa !9
  br label %29

29:                                               ; preds = %45, %25
  %30 = load i32, ptr %12, align 4, !tbaa !9
  %31 = load i32, ptr %11, align 4, !tbaa !9
  %32 = icmp slt i32 %30, %31
  br i1 %32, label %33, label %50

33:                                               ; preds = %29
  %34 = load ptr, ptr %13, align 8, !tbaa !13
  %35 = getelementptr inbounds nuw %struct.archive_read_filter_bidder, ptr %34, i32 0, i32 0
  %36 = load ptr, ptr %35, align 8, !tbaa !50
  %37 = icmp ne ptr %36, null
  br i1 %37, label %38, label %44

38:                                               ; preds = %33
  %39 = load ptr, ptr %13, align 8, !tbaa !13
  %40 = getelementptr inbounds nuw %struct.archive_read_filter_bidder, ptr %39, i32 0, i32 1
  %41 = load ptr, ptr %40, align 8, !tbaa !15
  %42 = icmp ne ptr %41, null
  br i1 %42, label %44, label %43

43:                                               ; preds = %38
  br label %50

44:                                               ; preds = %38, %33
  br label %45

45:                                               ; preds = %44
  %46 = load i32, ptr %12, align 4, !tbaa !9
  %47 = add nsw i32 %46, 1
  store i32 %47, ptr %12, align 4, !tbaa !9
  %48 = load ptr, ptr %13, align 8, !tbaa !13
  %49 = getelementptr inbounds nuw %struct.archive_read_filter_bidder, ptr %48, i32 1
  store ptr %49, ptr %13, align 8, !tbaa !13
  br label %29, !llvm.loop !51

50:                                               ; preds = %43, %29
  %51 = load ptr, ptr %13, align 8, !tbaa !13
  %52 = getelementptr inbounds nuw %struct.archive_read_filter_bidder, ptr %51, i32 0, i32 0
  %53 = load ptr, ptr %52, align 8, !tbaa !50
  %54 = icmp ne ptr %53, null
  br i1 %54, label %58, label %55

55:                                               ; preds = %50
  %56 = load ptr, ptr %15, align 8, !tbaa !11
  %57 = getelementptr inbounds nuw %struct.archive_read, ptr %56, i32 0, i32 0
  call void (ptr, i32, ptr, ...) @archive_set_error(ptr noundef %57, i32 noundef 22, ptr noundef @.str.15)
  store i32 -30, ptr %5, align 4
  store i32 1, ptr %16, align 4
  br label %104

58:                                               ; preds = %50
  %59 = call noalias ptr @calloc(i64 noundef 1, i64 noundef 144) #8
  store ptr %59, ptr %14, align 8, !tbaa !21
  %60 = load ptr, ptr %14, align 8, !tbaa !21
  %61 = icmp eq ptr %60, null
  br i1 %61, label %62, label %65

62:                                               ; preds = %58
  %63 = load ptr, ptr %15, align 8, !tbaa !11
  %64 = getelementptr inbounds nuw %struct.archive_read, ptr %63, i32 0, i32 0
  call void (ptr, i32, ptr, ...) @archive_set_error(ptr noundef %64, i32 noundef 12, ptr noundef @.str.14)
  store i32 -30, ptr %5, align 4
  store i32 1, ptr %16, align 4
  br label %104

65:                                               ; preds = %58
  %66 = load ptr, ptr %13, align 8, !tbaa !13
  %67 = load ptr, ptr %14, align 8, !tbaa !21
  %68 = getelementptr inbounds nuw %struct.archive_read_filter, ptr %67, i32 0, i32 1
  store ptr %66, ptr %68, align 8, !tbaa !23
  %69 = load ptr, ptr %15, align 8, !tbaa !11
  %70 = load ptr, ptr %14, align 8, !tbaa !21
  %71 = getelementptr inbounds nuw %struct.archive_read_filter, ptr %70, i32 0, i32 3
  store ptr %69, ptr %71, align 8, !tbaa !27
  %72 = load ptr, ptr %15, align 8, !tbaa !11
  %73 = getelementptr inbounds nuw %struct.archive_read, ptr %72, i32 0, i32 7
  %74 = load ptr, ptr %73, align 8, !tbaa !28
  %75 = load ptr, ptr %14, align 8, !tbaa !21
  %76 = getelementptr inbounds nuw %struct.archive_read_filter, ptr %75, i32 0, i32 2
  store ptr %74, ptr %76, align 8, !tbaa !42
  %77 = load ptr, ptr %14, align 8, !tbaa !21
  %78 = load ptr, ptr %15, align 8, !tbaa !11
  %79 = getelementptr inbounds nuw %struct.archive_read, ptr %78, i32 0, i32 7
  store ptr %77, ptr %79, align 8, !tbaa !28
  %80 = load ptr, ptr %13, align 8, !tbaa !13
  %81 = getelementptr inbounds nuw %struct.archive_read_filter_bidder, ptr %80, i32 0, i32 2
  %82 = load ptr, ptr %81, align 8, !tbaa !43
  %83 = getelementptr inbounds nuw %struct.archive_read_filter_bidder_vtable, ptr %82, i32 0, i32 1
  %84 = load ptr, ptr %83, align 8, !tbaa !44
  %85 = load ptr, ptr %15, align 8, !tbaa !11
  %86 = getelementptr inbounds nuw %struct.archive_read, ptr %85, i32 0, i32 7
  %87 = load ptr, ptr %86, align 8, !tbaa !28
  %88 = call i32 %84(ptr noundef %87)
  store i32 %88, ptr %10, align 4, !tbaa !9
  %89 = load i32, ptr %10, align 4, !tbaa !9
  %90 = icmp ne i32 %89, 0
  br i1 %90, label %91, label %93

91:                                               ; preds = %65
  %92 = load ptr, ptr %15, align 8, !tbaa !11
  call void @__archive_read_free_filters(ptr noundef %92)
  store i32 -30, ptr %5, align 4
  store i32 1, ptr %16, align 4
  br label %104

93:                                               ; preds = %65
  %94 = load ptr, ptr %15, align 8, !tbaa !11
  %95 = getelementptr inbounds nuw %struct.archive_read, ptr %94, i32 0, i32 7
  %96 = load ptr, ptr %95, align 8, !tbaa !28
  %97 = getelementptr inbounds nuw %struct.archive_read_filter, ptr %96, i32 0, i32 6
  %98 = load ptr, ptr %97, align 8, !tbaa !52
  %99 = load ptr, ptr %13, align 8, !tbaa !13
  %100 = getelementptr inbounds nuw %struct.archive_read_filter_bidder, ptr %99, i32 0, i32 1
  store ptr %98, ptr %100, align 8, !tbaa !15
  %101 = load ptr, ptr %15, align 8, !tbaa !11
  %102 = getelementptr inbounds nuw %struct.archive_read, ptr %101, i32 0, i32 8
  store i32 1, ptr %102, align 8, !tbaa !46
  %103 = load i32, ptr %10, align 4, !tbaa !9
  store i32 %103, ptr %5, align 4
  store i32 1, ptr %16, align 4
  br label %104

104:                                              ; preds = %93, %91, %62, %55, %24
  call void @llvm.lifetime.end.p0(i64 8, ptr %15) #6
  call void @llvm.lifetime.end.p0(i64 8, ptr %14) #6
  call void @llvm.lifetime.end.p0(i64 8, ptr %13) #6
  call void @llvm.lifetime.end.p0(i64 4, ptr %12) #6
  call void @llvm.lifetime.end.p0(i64 4, ptr %11) #6
  call void @llvm.lifetime.end.p0(i64 4, ptr %10) #6
  %105 = load i32, ptr %5, align 4
  ret i32 %105
}