; Function Attrs: nounwind uwtable
define dso_local range(i32 -30, 1) i32 @archive_read_append_filter_program_signature(ptr noundef %0, ptr noundef %1, ptr noundef %2, i64 noundef %3) local_unnamed_addr #0 {
  %5 = tail call i32 @archive_read_support_filter_program_signature(ptr noundef %0, ptr noundef %1, ptr noundef %2, i64 noundef %3) #7
  %.not = icmp eq i32 %5, 0
  br i1 %.not, label %6, label %38

6:                                                ; preds = %4
  %7 = getelementptr inbounds nuw i8, ptr %0, i64 248
  %scevgep = getelementptr i8, ptr %0, i64 632
  br label %8

8:                                                ; preds = %6, %13
  %.03241 = phi i32 [ 0, %6 ], [ %14, %13 ]
  %.03340 = phi ptr [ %7, %6 ], [ %15, %13 ]
  %9 = load ptr, ptr %.03340, align 8, !tbaa !41
  %.not36 = icmp eq ptr %9, null
  br i1 %.not36, label %13, label %10

10:                                               ; preds = %8
  %11 = getelementptr inbounds nuw i8, ptr %.03340, i64 8
  %12 = load ptr, ptr %11, align 8, !tbaa !4
  %.not37 = icmp eq ptr %12, null
  br i1 %.not37, label %split.thread, label %13

13:                                               ; preds = %8, %10
  %14 = add nuw nsw i32 %.03241, 1
  %15 = getelementptr inbounds nuw i8, ptr %.03340, i64 24
  %exitcond.not = icmp eq i32 %14, 16
  br i1 %exitcond.not, label %split, label %8, !llvm.loop !42

split:                                            ; preds = %13
  %.pre = load ptr, ptr %scevgep, align 8, !tbaa !41
  %16 = icmp eq ptr %.pre, null
  br i1 %16, label %17, label %split.thread

17:                                               ; preds = %split
  tail call void (ptr, i32, ptr, ...) @archive_set_error(ptr noundef nonnull %0, i32 noundef 22, ptr noundef nonnull @.str.15) #7
  br label %38

split.thread:                                     ; preds = %10, %split
  %.033.lcssa44 = phi ptr [ %scevgep, %split ], [ %.03340, %10 ]
  %18 = tail call noalias dereferenceable_or_null(144) ptr @calloc(i64 noundef 1, i64 noundef 144) #9
  %19 = icmp eq ptr %18, null
  br i1 %19, label %20, label %21

20:                                               ; preds = %split.thread
  tail call void (ptr, i32, ptr, ...) @archive_set_error(ptr noundef %0, i32 noundef 12, ptr noundef nonnull @.str.14) #7
  br label %38

21:                                               ; preds = %split.thread
  %22 = getelementptr inbounds nuw i8, ptr %18, i64 8
  store ptr %.033.lcssa44, ptr %22, align 8, !tbaa !13
  %23 = getelementptr inbounds nuw i8, ptr %18, i64 24
  store ptr %0, ptr %23, align 8, !tbaa !21
  %24 = load ptr, ptr %scevgep, align 8, !tbaa !22
  %25 = getelementptr inbounds nuw i8, ptr %18, i64 16
  store ptr %24, ptr %25, align 8, !tbaa !36
  store ptr %18, ptr %scevgep, align 8, !tbaa !22
  %26 = getelementptr inbounds nuw i8, ptr %.033.lcssa44, i64 16
  %27 = load ptr, ptr %26, align 8, !tbaa !37
  %28 = getelementptr inbounds nuw i8, ptr %27, i64 8
  %29 = load ptr, ptr %28, align 8, !tbaa !38
  %30 = tail call i32 %29(ptr noundef nonnull %18) #7
  %.not39 = icmp eq i32 %30, 0
  br i1 %.not39, label %32, label %31

31:                                               ; preds = %21
  tail call void @__archive_read_free_filters(ptr noundef nonnull %0) #7
  br label %38

32:                                               ; preds = %21
  %33 = load ptr, ptr %scevgep, align 8, !tbaa !22
  %34 = getelementptr inbounds nuw i8, ptr %33, i64 48
  %35 = load ptr, ptr %34, align 8, !tbaa !43
  %36 = getelementptr inbounds nuw i8, ptr %.033.lcssa44, i64 8
  store ptr %35, ptr %36, align 8, !tbaa !4
  %37 = getelementptr inbounds nuw i8, ptr %0, i64 640
  store i32 1, ptr %37, align 8, !tbaa !40
  br label %38

38:                                               ; preds = %4, %32, %31, %20, %17
  %.0 = phi i32 [ -30, %20 ], [ -30, %31 ], [ 0, %32 ], [ -30, %17 ], [ -30, %4 ]
  ret i32 %.0
}